; Function Attrs: nounwind uwtable
define zeroext i8 @l_Lean_Meta_initFn____x40_Lean_Meta_CongrTheorems___hyg_5298____lambda__1(ptr noundef %0, ptr noundef %1) local_unnamed_addr #1 {
  %3 = ptrtoint ptr %1 to i64
  %4 = and i64 %3, 1
  %.not.i46 = icmp eq i64 %4, 0
  br i1 %.not.i46, label %lean_obj_tag.exit.thread, label %lean_obj_tag.exit

lean_obj_tag.exit:                                ; preds = %2
  %5 = and i64 %3, 8589934590
  %6 = icmp eq i64 %5, 2
  br i1 %6, label %9, label %lean_dec.exit26

lean_obj_tag.exit.thread:                         ; preds = %2
  %7 = getelementptr i8, ptr %1, i64 4
  %.val.i = load i32, ptr %7, align 4
  %.mask = and i32 %.val.i, -16777216
  %8 = icmp eq i32 %.mask, 16777216
  br i1 %8, label %9, label %.thread56

9:                                                ; preds = %lean_obj_tag.exit.thread, %lean_obj_tag.exit
  %10 = getelementptr inbounds nuw i8, ptr %1, i64 8
  %11 = load ptr, ptr %10, align 8, !tbaa !10
  %12 = ptrtoint ptr %11 to i64
  %13 = and i64 %12, 1
  %.not57 = icmp eq i64 %13, 0
  br i1 %.not57, label %14, label %lean_inc.exit33

14:                                               ; preds = %9
  %.val.i47 = load i32, ptr %11, align 4, !tbaa !4
  %15 = icmp sgt i32 %.val.i47, 0
  br i1 %15, label %16, label %18, !prof !9

16:                                               ; preds = %14
  %17 = add nuw i32 %.val.i47, 1
  store i32 %17, ptr %11, align 4, !tbaa !4
  br label %lean_inc.exit33

18:                                               ; preds = %14
  %.not.i48 = icmp eq i32 %.val.i47, 0
  br i1 %.not.i48, label %lean_inc.exit33, label %19

19:                                               ; preds = %18
  tail call void @lean_inc_ref_cold(ptr noundef nonnull %11) #7
  br label %lean_inc.exit33

lean_inc.exit33:                                  ; preds = %19, %18, %16, %9
  %20 = getelementptr inbounds nuw i8, ptr %1, i64 16
  %21 = load ptr, ptr %20, align 8, !tbaa !10
  %22 = ptrtoint ptr %21 to i64
  %23 = and i64 %22, 1
  %.not58 = icmp eq i64 %23, 0
  br i1 %.not58, label %24, label %lean_inc.exit32

24:                                               ; preds = %lean_inc.exit33
  %.val.i49 = load i32, ptr %21, align 4, !tbaa !4
  %25 = icmp sgt i32 %.val.i49, 0
  br i1 %25, label %26, label %28, !prof !9

26:                                               ; preds = %24
  %27 = add nuw i32 %.val.i49, 1
  store i32 %27, ptr %21, align 4, !tbaa !4
  br label %lean_inc.exit32

28:                                               ; preds = %24
  %.not.i50 = icmp eq i32 %.val.i49, 0
  br i1 %.not.i50, label %lean_inc.exit32, label %29

29:                                               ; preds = %28
  tail call void @lean_inc_ref_cold(ptr noundef nonnull %21) #7
  br label %lean_inc.exit32

lean_inc.exit32:                                  ; preds = %29, %28, %26, %lean_inc.exit33
  br i1 %.not.i46, label %30, label %lean_dec.exit31

30:                                               ; preds = %lean_inc.exit32
  %31 = load i32, ptr %1, align 4, !tbaa !4
  %32 = icmp sgt i32 %31, 1
  br i1 %32, label %33, label %35, !prof !9

33:                                               ; preds = %30
  %34 = add nsw i32 %31, -1
  store i32 %34, ptr %1, align 4, !tbaa !4
  br label %lean_dec.exit31

35:                                               ; preds = %30
  %.not.i = icmp eq i32 %31, 0
  br i1 %.not.i, label %lean_dec.exit31, label %36

36:                                               ; preds = %35
  tail call void @lean_dec_ref_cold(ptr noundef nonnull %1) #7
  br label %lean_dec.exit31

lean_dec.exit31:                                  ; preds = %36, %35, %33, %lean_inc.exit32
  br i1 %.not58, label %37, label %lean_inc.exit.thread

37:                                               ; preds = %lean_dec.exit31
  %.val.i52 = load i32, ptr %21, align 4, !tbaa !4
  %38 = icmp sgt i32 %.val.i52, 0
  br i1 %38, label %39, label %41, !prof !9

39:                                               ; preds = %37
  %40 = add nuw i32 %.val.i52, 1
  store i32 %40, ptr %21, align 4, !tbaa !4
  br label %lean_inc.exit

41:                                               ; preds = %37
  %.not.i53 = icmp eq i32 %.val.i52, 0
  br i1 %.not.i53, label %lean_inc.exit, label %42

42:                                               ; preds = %41
  tail call void @lean_inc_ref_cold(ptr noundef nonnull %21) #7
  br label %lean_inc.exit

lean_inc.exit:                                    ; preds = %42, %41, %39
  %43 = tail call zeroext i8 @l_Lean_Meta_isHCongrReservedNameSuffix(ptr noundef nonnull %21)
  %44 = icmp eq i8 %43, 0
  br i1 %44, label %47, label %84

lean_inc.exit.thread:                             ; preds = %lean_dec.exit31
  %45 = tail call zeroext i8 @l_Lean_Meta_isHCongrReservedNameSuffix(ptr noundef %21)
  %46 = icmp eq i8 %45, 0
  br i1 %46, label %47, label %lean_dec.exit27

47:                                               ; preds = %lean_inc.exit.thread, %lean_inc.exit
  %48 = load ptr, ptr @l_Lean_Meta_congrSimpSuffix, align 8, !tbaa !10
  %49 = icmp eq ptr %21, %48
  br i1 %49, label %lean_string_dec_eq.exit, label %50

50:                                               ; preds = %47
  %51 = getelementptr i8, ptr %21, i64 8
  %.val.i.i = load i64, ptr %51, align 8, !tbaa !16
  %52 = getelementptr i8, ptr %48, i64 8
  %.val7.i.i = load i64, ptr %52, align 8, !tbaa !16
  %53 = icmp eq i64 %.val.i.i, %.val7.i.i
  br i1 %53, label %54, label %lean_string_dec_eq.exit

54:                                               ; preds = %50
  %55 = tail call zeroext i1 @lean_string_eq_cold(ptr noundef nonnull %21, ptr noundef nonnull %48) #7
  %56 = xor i1 %55, true
  br label %lean_string_dec_eq.exit

lean_string_dec_eq.exit:                          ; preds = %47, %50, %54
  %57 = phi i1 [ false, %47 ], [ true, %50 ], [ %56, %54 ]
  br i1 %.not58, label %58, label %lean_dec.exit30

58:                                               ; preds = %lean_string_dec_eq.exit
  %59 = load i32, ptr %21, align 4, !tbaa !4
  %60 = icmp sgt i32 %59, 1
  br i1 %60, label %61, label %63, !prof !9

61:                                               ; preds = %58
  %62 = add nsw i32 %59, -1
  store i32 %62, ptr %21, align 4, !tbaa !4
  br label %lean_dec.exit30

63:                                               ; preds = %58
  %.not.i34 = icmp eq i32 %59, 0
  br i1 %.not.i34, label %lean_dec.exit30, label %64

64:                                               ; preds = %63
  tail call void @lean_dec_ref_cold(ptr noundef nonnull %21) #7
  br label %lean_dec.exit30

lean_dec.exit30:                                  ; preds = %64, %63, %61, %lean_string_dec_eq.exit
  br i1 %57, label %65, label %82

65:                                               ; preds = %lean_dec.exit30
  br i1 %.not57, label %66, label %lean_dec.exit29

66:                                               ; preds = %65
  %67 = load i32, ptr %11, align 4, !tbaa !4
  %68 = icmp sgt i32 %67, 1
  br i1 %68, label %69, label %71, !prof !9

69:                                               ; preds = %66
  %70 = add nsw i32 %67, -1
  store i32 %70, ptr %11, align 4, !tbaa !4
  br label %lean_dec.exit29

71:                                               ; preds = %66
  %.not.i36 = icmp eq i32 %67, 0
  br i1 %.not.i36, label %lean_dec.exit29, label %72

72:                                               ; preds = %71
  tail call void @lean_dec_ref_cold(ptr noundef nonnull %11) #7
  br label %lean_dec.exit29

lean_dec.exit29:                                  ; preds = %72, %71, %69, %65
  %73 = ptrtoint ptr %0 to i64
  %74 = and i64 %73, 1
  %.not60 = icmp eq i64 %74, 0
  br i1 %.not60, label %75, label %lean_dec.exit28

75:                                               ; preds = %lean_dec.exit29
  %76 = load i32, ptr %0, align 4, !tbaa !4
  %77 = icmp sgt i32 %76, 1
  br i1 %77, label %78, label %80, !prof !9

78:                                               ; preds = %75
  %79 = add nsw i32 %76, -1
  store i32 %79, ptr %0, align 4, !tbaa !4
  br label %lean_dec.exit28

80:                                               ; preds = %75
  %.not.i38 = icmp eq i32 %76, 0
  br i1 %.not.i38, label %lean_dec.exit28, label %81

81:                                               ; preds = %80
  tail call void @lean_dec_ref_cold(ptr noundef nonnull %0) #7
  br label %lean_dec.exit28

82:                                               ; preds = %lean_dec.exit30
  %83 = tail call zeroext i8 @l_Lean_Environment_isSafeDefinition(ptr noundef %0, ptr noundef %11) #7
  br label %lean_dec.exit28

84:                                               ; preds = %lean_inc.exit
  %85 = load i32, ptr %21, align 4, !tbaa !4
  %86 = icmp sgt i32 %85, 1
  br i1 %86, label %87, label %89, !prof !9

87:                                               ; preds = %84
  %88 = add nsw i32 %85, -1
  store i32 %88, ptr %21, align 4, !tbaa !4
  br label %lean_dec.exit27

89:                                               ; preds = %84
  %.not.i40 = icmp eq i32 %85, 0
  br i1 %.not.i40, label %lean_dec.exit27, label %90

90:                                               ; preds = %89
  tail call void @lean_dec_ref_cold(ptr noundef nonnull %21) #7
  br label %lean_dec.exit27

lean_dec.exit27:                                  ; preds = %lean_inc.exit.thread, %90, %89, %87
  %91 = tail call zeroext i8 @l_Lean_Environment_isSafeDefinition(ptr noundef %0, ptr noundef %11) #7
  br label %lean_dec.exit28

.thread56:                                        ; preds = %lean_obj_tag.exit.thread
  %92 = load i32, ptr %1, align 4, !tbaa !4
  %93 = icmp sgt i32 %92, 1
  br i1 %93, label %94, label %96, !prof !9

94:                                               ; preds = %.thread56
  %95 = add nsw i32 %92, -1
  store i32 %95, ptr %1, align 4, !tbaa !4
  br label %lean_dec.exit26

96:                                               ; preds = %.thread56
  %.not.i42 = icmp eq i32 %92, 0
  br i1 %.not.i42, label %lean_dec.exit26, label %97

97:                                               ; preds = %96
  tail call void @lean_dec_ref_cold(ptr noundef nonnull %1) #7
  br label %lean_dec.exit26

lean_dec.exit26:                                  ; preds = %lean_obj_tag.exit, %97, %96, %94
  %98 = ptrtoint ptr %0 to i64
  %99 = and i64 %98, 1
  %.not = icmp eq i64 %99, 0
  br i1 %.not, label %100, label %lean_dec.exit28

100:                                              ; preds = %lean_dec.exit26
  %101 = load i32, ptr %0, align 4, !tbaa !4
  %102 = icmp sgt i32 %101, 1
  br i1 %102, label %103, label %105, !prof !9

103:                                              ; preds = %100
  %104 = add nsw i32 %101, -1
  store i32 %104, ptr %0, align 4, !tbaa !4
  br label %lean_dec.exit28

105:                                              ; preds = %100
  %.not.i44 = icmp eq i32 %101, 0
  br i1 %.not.i44, label %lean_dec.exit28, label %106

106:                                              ; preds = %105
  tail call void @lean_dec_ref_cold(ptr noundef nonnull %0) #7
  br label %lean_dec.exit28

lean_dec.exit28:                                  ; preds = %lean_dec.exit26, %103, %105, %106, %lean_dec.exit29, %78, %80, %81, %lean_dec.exit27, %82
  %.2 = phi i8 [ %91, %lean_dec.exit27 ], [ %83, %82 ], [ 0, %81 ], [ 0, %80 ], [ 0, %78 ], [ 0, %lean_dec.exit29 ], [ 0, %106 ], [ 0, %105 ], [ 0, %103 ], [ 0, %lean_dec.exit26 ]
  ret i8 %.2
}